; ModuleID = '19/683.c'
source_filename = "19/683.c"
target datalayout = "e-m:e-p270:32:32-p271:32:32-p272:64:64-i64:64-f80:128-n8:16:32:64-S128"
target triple = "x86_64-pc-linux-gnu"

@__const.main.k = private unnamed_addr constant [3 x i8] c" \00\00", align 1

; Function Attrs: noinline nounwind uwtable
define dso_local i32 @main() #0 {
  %1 = alloca i32, align 4
  %2 = alloca [101 x i8], align 16
  %3 = alloca [101 x [101 x i8]], align 16
  %4 = alloca [101 x i8], align 16
  %5 = alloca [3 x i8], align 1
  %6 = alloca [3 x i8], align 1
  %7 = alloca [101 x i8], align 16
  %8 = alloca [101 x i8], align 16
  %9 = alloca i32, align 4
  %10 = alloca i32, align 4
  %11 = alloca i32, align 4
  store i32 0, i32* %1, align 4
  %12 = bitcast [101 x i8]* %4 to i8*
  call void @llvm.memset.p0i8.i64(i8* align 16 %12, i8 0, i64 101, i1 false)
  %13 = bitcast [3 x i8]* %5 to i8*
  call void @llvm.memcpy.p0i8.p0i8.i64(i8* align 1 %13, i8* align 1 getelementptr inbounds ([3 x i8], [3 x i8]* @__const.main.k, i32 0, i32 0), i64 3, i1 false)
  %14 = bitcast [3 x i8]* %6 to i8*
  call void @llvm.memset.p0i8.i64(i8* align 1 %14, i8 0, i64 3, i1 false)
  store i32 0, i32* %10, align 4
  store i32 0, i32* %11, align 4
  %15 = getelementptr inbounds [101 x i8], [101 x i8]* %2, i64 0, i64 0
  %16 = call i32 (i8*, ...) bitcast (i32 (...)* @gets to i32 (i8*, ...)*)(i8* %15)
  %17 = getelementptr inbounds [101 x i8], [101 x i8]* %7, i64 0, i64 0
  %18 = call i32 (i8*, ...) bitcast (i32 (...)* @gets to i32 (i8*, ...)*)(i8* %17)
  %19 = getelementptr inbounds [101 x i8], [101 x i8]* %8, i64 0, i64 0
  %20 = call i32 (i8*, ...) bitcast (i32 (...)* @gets to i32 (i8*, ...)*)(i8* %19)
  store i32 0, i32* %10, align 4
  br label %21

21:                                               ; preds = %78, %0
  store i32 0, i32* %9, align 4
  br label %22

22:                                               ; preds = %64, %21
  %23 = load i32, i32* %11, align 4
  %24 = sext i32 %23 to i64
  %25 = getelementptr inbounds [101 x i8], [101 x i8]* %2, i64 0, i64 %24
  %26 = load i8, i8* %25, align 1
  %27 = sext i8 %26 to i32
  %28 = icmp ne i32 %27, 32
  br i1 %28, label %29, label %40

29:                                               ; preds = %22
  %30 = load i32, i32* %11, align 4
  %31 = sext i32 %30 to i64
  %32 = getelementptr inbounds [101 x i8], [101 x i8]* %2, i64 0, i64 %31
  %33 = load i8, i8* %32, align 1
  %34 = load i32, i32* %10, align 4
  %35 = sext i32 %34 to i64
  %36 = getelementptr inbounds [101 x [101 x i8]], [101 x [101 x i8]]* %3, i64 0, i64 %35
  %37 = load i32, i32* %9, align 4
  %38 = sext i32 %37 to i64
  %39 = getelementptr inbounds [101 x i8], [101 x i8]* %36, i64 0, i64 %38
  store i8 %33, i8* %39, align 1
  br label %40

40:                                               ; preds = %29, %22
  %41 = load i32, i32* %11, align 4
  %42 = sext i32 %41 to i64
  %43 = getelementptr inbounds [101 x i8], [101 x i8]* %2, i64 0, i64 %42
  %44 = load i8, i8* %43, align 1
  %45 = sext i8 %44 to i32
  %46 = icmp eq i32 %45, 32
  br i1 %46, label %54, label %47

47:                                               ; preds = %40
  %48 = load i32, i32* %11, align 4
  %49 = sext i32 %48 to i64
  %50 = getelementptr inbounds [101 x i8], [101 x i8]* %2, i64 0, i64 %49
  %51 = load i8, i8* %50, align 1
  %52 = sext i8 %51 to i32
  %53 = icmp eq i32 %52, 0
  br i1 %53, label %54, label %61

54:                                               ; preds = %47, %40
  %55 = load i32, i32* %10, align 4
  %56 = sext i32 %55 to i64
  %57 = getelementptr inbounds [101 x [101 x i8]], [101 x [101 x i8]]* %3, i64 0, i64 %56
  %58 = load i32, i32* %9, align 4
  %59 = sext i32 %58 to i64
  %60 = getelementptr inbounds [101 x i8], [101 x i8]* %57, i64 0, i64 %59
  store i8 0, i8* %60, align 1
  br label %67

61:                                               ; preds = %47
  %62 = load i32, i32* %11, align 4
  %63 = add nsw i32 %62, 1
  store i32 %63, i32* %11, align 4
  br label %64

64:                                               ; preds = %61
  %65 = load i32, i32* %9, align 4
  %66 = add nsw i32 %65, 1
  store i32 %66, i32* %9, align 4
  br label %22

67:                                               ; preds = %54
  %68 = load i32, i32* %11, align 4
  %69 = sext i32 %68 to i64
  %70 = getelementptr inbounds [101 x i8], [101 x i8]* %2, i64 0, i64 %69
  %71 = load i8, i8* %70, align 1
  %72 = sext i8 %71 to i32
  %73 = icmp eq i32 %72, 0
  br i1 %73, label %74, label %75

74:                                               ; preds = %67
  br label %81

75:                                               ; preds = %67
  %76 = load i32, i32* %11, align 4
  %77 = add nsw i32 %76, 1
  store i32 %77, i32* %11, align 4
  br label %78

78:                                               ; preds = %75
  %79 = load i32, i32* %10, align 4
  %80 = add nsw i32 %79, 1
  store i32 %80, i32* %10, align 4
  br label %21

81:                                               ; preds = %74
  store i32 0, i32* %9, align 4
  br label %82

82:                                               ; preds = %122, %81
  %83 = load i32, i32* %9, align 4
  %84 = load i32, i32* %10, align 4
  %85 = icmp sle i32 %83, %84
  br i1 %85, label %86, label %125

86:                                               ; preds = %82
  %87 = load i32, i32* %9, align 4
  %88 = sext i32 %87 to i64
  %89 = getelementptr inbounds [101 x [101 x i8]], [101 x [101 x i8]]* %3, i64 0, i64 %88
  %90 = getelementptr inbounds [101 x i8], [101 x i8]* %89, i64 0, i64 0
  %91 = getelementptr inbounds [101 x i8], [101 x i8]* %7, i64 0, i64 0
  %92 = call i32 @strcmp(i8* %90, i8* %91) #5
  %93 = icmp eq i32 %92, 0
  br i1 %93, label %94, label %98

94:                                               ; preds = %86
  %95 = getelementptr inbounds [101 x i8], [101 x i8]* %4, i64 0, i64 0
  %96 = getelementptr inbounds [101 x i8], [101 x i8]* %8, i64 0, i64 0
  %97 = call i8* @strcat(i8* %95, i8* %96) #6
  br label %98

98:                                               ; preds = %94, %86
  %99 = load i32, i32* %9, align 4
  %100 = sext i32 %99 to i64
  %101 = getelementptr inbounds [101 x [101 x i8]], [101 x [101 x i8]]* %3, i64 0, i64 %100
  %102 = getelementptr inbounds [101 x i8], [101 x i8]* %101, i64 0, i64 0
  %103 = getelementptr inbounds [101 x i8], [101 x i8]* %7, i64 0, i64 0
  %104 = call i32 @strcmp(i8* %102, i8* %103) #5
  %105 = icmp ne i32 %104, 0
  br i1 %105, label %106, label %113

106:                                              ; preds = %98
  %107 = getelementptr inbounds [101 x i8], [101 x i8]* %4, i64 0, i64 0
  %108 = load i32, i32* %9, align 4
  %109 = sext i32 %108 to i64
  %110 = getelementptr inbounds [101 x [101 x i8]], [101 x [101 x i8]]* %3, i64 0, i64 %109
  %111 = getelementptr inbounds [101 x i8], [101 x i8]* %110, i64 0, i64 0
  %112 = call i8* @strcat(i8* %107, i8* %111) #6
  br label %113

113:                                              ; preds = %106, %98
  %114 = load i32, i32* %9, align 4
  %115 = load i32, i32* %10, align 4
  %116 = icmp ne i32 %114, %115
  br i1 %116, label %117, label %121

117:                                              ; preds = %113
  %118 = getelementptr inbounds [101 x i8], [101 x i8]* %4, i64 0, i64 0
  %119 = getelementptr inbounds [3 x i8], [3 x i8]* %5, i64 0, i64 0
  %120 = call i8* @strcat(i8* %118, i8* %119) #6
  br label %121

121:                                              ; preds = %117, %113
  br label %122

122:                                              ; preds = %121
  %123 = load i32, i32* %9, align 4
  %124 = add nsw i32 %123, 1
  store i32 %124, i32* %9, align 4
  br label %82

125:                                              ; preds = %82
  %126 = getelementptr inbounds [101 x i8], [101 x i8]* %4, i64 0, i64 0
  %127 = call i32 @puts(i8* %126)
  ret i32 0
}

; Function Attrs: argmemonly nounwind willreturn
declare void @llvm.memset.p0i8.i64(i8* nocapture writeonly, i8, i64, i1 immarg) #1

; Function Attrs: argmemonly nounwind willreturn
declare void @llvm.memcpy.p0i8.p0i8.i64(i8* noalias nocapture writeonly, i8* noalias nocapture readonly, i64, i1 immarg) #1

declare dso_local i32 @gets(...) #2

; Function Attrs: nounwind readonly
declare dso_local i32 @strcmp(i8*, i8*) #3

; Function Attrs: nounwind
declare dso_local i8* @strcat(i8*, i8*) #4

declare dso_local i32 @puts(i8*) #2


!llvm.module.flags = !{!0}
!llvm.ident = !{!1}

!0 = !{i32 1, !"wchar_size", i32 4}
!1 = !{!"clang version 10.0.0-4ubuntu1 "}
